target datalayout = "e-m:e-p270:32:32-p271:32:32-p272:64:64-i64:64-i128:128-f80:128-n8:16:32:64-S128"
target triple = "x86_64-pc-linux-gnu"

%struct.quic_rcidm_st = type { %struct.quic_conn_id_st, %struct.quic_conn_id_st, %struct.quic_conn_id_st, i64, i64, i64, ptr, ptr, %struct.ossl_list_st_retiring, i64, i8 }
%struct.quic_conn_id_st = type { i8, [20 x i8] }
%struct.ossl_list_st_retiring = type { ptr, ptr, i64 }

; Function Attrs: inlinehint nounwind uwtable
define internal ptr @ossl_pqueue_RCID_peek(ptr noundef %0) #3 {
  %2 = alloca ptr, align 8
  store ptr %0, ptr %2, align 8, !tbaa !29
  %3 = load ptr, ptr %2, align 8, !tbaa !29
  %4 = call ptr @ossl_pqueue_peek(ptr noundef %3)
  ret ptr %4
}

; Function Attrs: nounwind uwtable
define internal void @rcidm_roll(ptr noundef %0) #0 {
  %2 = alloca ptr, align 8
  %3 = alloca ptr, align 8
  %4 = alloca i32, align 4
  store ptr %0, ptr %2, align 8, !tbaa !8
  call void @llvm.lifetime.start.p0(i64 8, ptr %3) #7
  %5 = load ptr, ptr %2, align 8, !tbaa !8
  %6 = getelementptr inbounds nuw %struct.quic_rcidm_st, ptr %5, i32 0, i32 6
  %7 = load ptr, ptr %6, align 8, !tbaa !10
  %8 = call ptr @ossl_pqueue_RCID_peek(ptr noundef %7)
  store ptr %8, ptr %3, align 8, !tbaa !21
  %9 = icmp eq ptr %8, null
  br i1 %9, label %10, label %11

10:                                               ; preds = %1
  store i32 1, ptr %4, align 4
  br label %36

11:                                               ; preds = %1
  %12 = load ptr, ptr %2, align 8, !tbaa !8
  %13 = load ptr, ptr %3, align 8, !tbaa !21
  call void @rcidm_transition_rcid(ptr noundef %12, ptr noundef %13, i32 noundef 1)
  %14 = load ptr, ptr %2, align 8, !tbaa !8
  %15 = getelementptr inbounds nuw %struct.quic_rcidm_st, ptr %14, i32 0, i32 4
  %16 = load i64, ptr %15, align 8, !tbaa !53
  %17 = add i64 %16, 1
  store i64 %17, ptr %15, align 8, !tbaa !53
  %18 = load ptr, ptr %2, align 8, !tbaa !8
  %19 = getelementptr inbounds nuw %struct.quic_rcidm_st, ptr %18, i32 0, i32 10
  %20 = load i8, ptr %19, align 8
  %21 = and i8 %20, -65
  %22 = or i8 %21, 0
  store i8 %22, ptr %19, align 8
  %23 = load ptr, ptr %2, align 8, !tbaa !8
  %24 = getelementptr inbounds nuw %struct.quic_rcidm_st, ptr %23, i32 0, i32 3
  %25 = load i64, ptr %24, align 8, !tbaa !35
  %26 = icmp uge i64 %25, 10000
  br i1 %26, label %27, label %32

27:                                               ; preds = %11
  %28 = load ptr, ptr %2, align 8, !tbaa !8
  %29 = getelementptr inbounds nuw %struct.quic_rcidm_st, ptr %28, i32 0, i32 3
  %30 = load i64, ptr %29, align 8, !tbaa !35
  %31 = urem i64 %30, 10000
  store i64 %31, ptr %29, align 8, !tbaa !35
  br label %35

32:                                               ; preds = %11
  %33 = load ptr, ptr %2, align 8, !tbaa !8
  %34 = getelementptr inbounds nuw %struct.quic_rcidm_st, ptr %33, i32 0, i32 3
  store i64 0, ptr %34, align 8, !tbaa !35
  br label %35

35:                                               ; preds = %32, %27
  store i32 0, ptr %4, align 4
  br label %36

36:                                               ; preds = %35, %10
  call void @llvm.lifetime.end.p0(i64 8, ptr %3) #7
  %37 = load i32, ptr %4, align 4
  switch i32 %37, label %39 [
    i32 0, label %38
    i32 1, label %38
  ]

38:                                               ; preds = %36, %36
  ret void

39:                                               ; preds = %36
  unreachable
}

; Function Attrs: nounwind uwtable
define internal i32 @rcidm_should_roll(ptr noundef %0) #0 {
  %2 = alloca ptr, align 8
  store ptr %0, ptr %2, align 8, !tbaa !8
  %3 = load ptr, ptr %2, align 8, !tbaa !8
  %4 = getelementptr inbounds nuw %struct.quic_rcidm_st, ptr %3, i32 0, i32 10
  %5 = load i8, ptr %4, align 8
  %6 = lshr i8 %5, 2
  %7 = and i8 %6, 1
  %8 = zext i8 %7 to i32
  %9 = icmp ne i32 %8, 0
  br i1 %9, label %10, label %30

10:                                               ; preds = %1
  %11 = load ptr, ptr %2, align 8, !tbaa !8
  %12 = getelementptr inbounds nuw %struct.quic_rcidm_st, ptr %11, i32 0, i32 4
  %13 = load i64, ptr %12, align 8, !tbaa !53
  %14 = icmp eq i64 %13, 0
  br i1 %14, label %28, label %15

15:                                               ; preds = %10
  %16 = load ptr, ptr %2, align 8, !tbaa !8
  %17 = getelementptr inbounds nuw %struct.quic_rcidm_st, ptr %16, i32 0, i32 3
  %18 = load i64, ptr %17, align 8, !tbaa !35
  %19 = icmp uge i64 %18, 10000
  br i1 %19, label %28, label %20

20:                                               ; preds = %15
  %21 = load ptr, ptr %2, align 8, !tbaa !8
  %22 = getelementptr inbounds nuw %struct.quic_rcidm_st, ptr %21, i32 0, i32 10
  %23 = load i8, ptr %22, align 8
  %24 = lshr i8 %23, 6
  %25 = and i8 %24, 1
  %26 = zext i8 %25 to i32
  %27 = icmp ne i32 %26, 0
  br label %28

28:                                               ; preds = %20, %15, %10
  %29 = phi i1 [ true, %15 ], [ true, %10 ], [ %27, %20 ]
  br label %30

30:                                               ; preds = %28, %1
  %31 = phi i1 [ false, %1 ], [ %29, %28 ]
  %32 = zext i1 %31 to i32
  ret i32 %32
}

; Function Attrs: nounwind uwtable
define internal void @rcidm_tick(ptr noundef %0) #0 {
  %2 = alloca ptr, align 8
  store ptr %0, ptr %2, align 8, !tbaa !8
  %3 = load ptr, ptr %2, align 8, !tbaa !8
  %4 = call i32 @rcidm_should_roll(ptr noundef %3)
  %5 = icmp ne i32 %4, 0
  br i1 %5, label %6, label %8

6:                                                ; preds = %1
  %7 = load ptr, ptr %2, align 8, !tbaa !8
  call void @rcidm_roll(ptr noundef %7)
  br label %8

8:                                                ; preds = %6, %1
  %9 = load ptr, ptr %2, align 8, !tbaa !8
  call void @rcidm_update(ptr noundef %9)
  ret void
}

; Function Attrs: nounwind uwtable
define void @ossl_quic_rcidm_on_handshake_complete(ptr noundef %0) #0 {
  %2 = alloca ptr, align 8
  store ptr %0, ptr %2, align 8, !tbaa !8
  %3 = load ptr, ptr %2, align 8, !tbaa !8
  %4 = getelementptr inbounds nuw %struct.quic_rcidm_st, ptr %3, i32 0, i32 10
  %5 = load i8, ptr %4, align 8
  %6 = lshr i8 %5, 2
  %7 = and i8 %6, 1
  %8 = zext i8 %7 to i32
  %9 = icmp ne i32 %8, 0
  br i1 %9, label %10, label %11

10:                                               ; preds = %1
  br label %18

11:                                               ; preds = %1
  %12 = load ptr, ptr %2, align 8, !tbaa !8
  %13 = getelementptr inbounds nuw %struct.quic_rcidm_st, ptr %12, i32 0, i32 10
  %14 = load i8, ptr %13, align 8
  %15 = and i8 %14, -5
  %16 = or i8 %15, 4
  store i8 %16, ptr %13, align 8
  %17 = load ptr, ptr %2, align 8, !tbaa !8
  call void @rcidm_tick(ptr noundef %17)
  br label %18

18:                                               ; preds = %11, %10
  ret void
}