; Function Attrs: nounwind uwtable
define void @ossl_quic_rcidm_on_handshake_complete(ptr noundef captures(none) %0) local_unnamed_addr #0 {
  %2 = getelementptr inbounds nuw i8, ptr %0, i64 136
  %3 = load i8, ptr %2, align 8
  %4 = and i8 %3, 4
  %.not = icmp eq i8 %4, 0
  br i1 %.not, label %5, label %28

5:                                                ; preds = %1
  %6 = or disjoint i8 %3, 4
  store i8 %6, ptr %2, align 8
  %7 = getelementptr inbounds nuw i8, ptr %0, i64 72
  %8 = load i64, ptr %7, align 8, !tbaa !26
  %9 = icmp eq i64 %8, 0
  br i1 %9, label %rcidm_should_roll.exit.thread.i, label %10

10:                                               ; preds = %5
  %11 = getelementptr inbounds nuw i8, ptr %0, i64 64
  %12 = load i64, ptr %11, align 8, !tbaa !27
  %13 = icmp ult i64 %12, 10000
  %14 = and i8 %3, 64
  %.not.i = icmp eq i8 %14, 0
  %or.cond.i = and i1 %.not.i, %13
  br i1 %or.cond.i, label %rcidm_tick.exit, label %rcidm_should_roll.exit.thread.i

rcidm_should_roll.exit.thread.i:                  ; preds = %10, %5
  %15 = getelementptr inbounds nuw i8, ptr %0, i64 88
  %16 = load ptr, ptr %15, align 8, !tbaa !3
  %17 = tail call ptr @ossl_pqueue_peek(ptr noundef %16) #9
  %18 = icmp eq ptr %17, null
  br i1 %18, label %rcidm_tick.exit, label %19

19:                                               ; preds = %rcidm_should_roll.exit.thread.i
  tail call fastcc void @rcidm_transition_rcid(ptr noundef nonnull %0, ptr noundef %17, i32 noundef 1)
  %20 = load i64, ptr %7, align 8, !tbaa !26
  %21 = add i64 %20, 1
  store i64 %21, ptr %7, align 8, !tbaa !26
  %22 = load i8, ptr %2, align 8
  %23 = and i8 %22, -65
  store i8 %23, ptr %2, align 8
  %24 = getelementptr inbounds nuw i8, ptr %0, i64 64
  %25 = load i64, ptr %24, align 8, !tbaa !27
  %26 = icmp ugt i64 %25, 9999
  %27 = urem i64 %25, 10000
  %storemerge.i.i = select i1 %26, i64 %27, i64 0
  store i64 %storemerge.i.i, ptr %24, align 8, !tbaa !27
  br label %rcidm_tick.exit

rcidm_tick.exit:                                  ; preds = %10, %rcidm_should_roll.exit.thread.i, %19
  tail call fastcc void @rcidm_update(ptr noundef nonnull %0)
  br label %28

28:                                               ; preds = %1, %rcidm_tick.exit
  ret void
}